; ModuleID = '10/952.c'
source_filename = "10/952.c"
target datalayout = "e-m:e-p270:32:32-p271:32:32-p272:64:64-i64:64-f80:128-n8:16:32:64-S128"
target triple = "x86_64-pc-linux-gnu"

@.str = private unnamed_addr constant [3 x i8] c"%d\00", align 1
@main.hight = internal global [25 x i32] zeroinitializer, align 16
@main.num = internal global [25 x i32] zeroinitializer, align 16
@.str.1 = private unnamed_addr constant [4 x i8] c"%d\0A\00", align 1

; Function Attrs: noinline nounwind uwtable
define dso_local i32 @main() #0 {
  %1 = alloca i32, align 4
  %2 = alloca i32, align 4
  %3 = alloca i32, align 4
  %4 = alloca i32, align 4
  %5 = alloca i32, align 4
  %6 = alloca i32, align 4
  %7 = alloca i32, align 4
  store i32 0, i32* %1, align 4
  %8 = call i32 (i8*, ...) @__isoc99_scanf(i8* getelementptr inbounds ([3 x i8], [3 x i8]* @.str, i64 0, i64 0), i32* %2)
  store i32 0, i32* %3, align 4
  br label %9

9:                                                ; preds = %19, %0
  %10 = load i32, i32* %3, align 4
  %11 = load i32, i32* %2, align 4
  %12 = sub nsw i32 %11, 1
  %13 = icmp sle i32 %10, %12
  br i1 %13, label %14, label %22

14:                                               ; preds = %9
  %15 = load i32, i32* %3, align 4
  %16 = sext i32 %15 to i64
  %17 = getelementptr inbounds [25 x i32], [25 x i32]* @main.hight, i64 0, i64 %16
  %18 = call i32 (i8*, ...) @__isoc99_scanf(i8* getelementptr inbounds ([3 x i8], [3 x i8]* @.str, i64 0, i64 0), i32* %17)
  br label %19

19:                                               ; preds = %14
  %20 = load i32, i32* %3, align 4
  %21 = add nsw i32 %20, 1
  store i32 %21, i32* %3, align 4
  br label %9

22:                                               ; preds = %9
  store i32 1, i32* getelementptr inbounds ([25 x i32], [25 x i32]* @main.num, i64 0, i64 0), align 16
  store i32 1, i32* %3, align 4
  br label %23

23:                                               ; preds = %106, %22
  %24 = load i32, i32* %3, align 4
  %25 = load i32, i32* %2, align 4
  %26 = sub nsw i32 %25, 1
  %27 = icmp sle i32 %24, %26
  br i1 %27, label %28, label %109

28:                                               ; preds = %23
  %29 = load i32, i32* %3, align 4
  %30 = sub nsw i32 %29, 1
  store i32 %30, i32* %4, align 4
  br label %31

31:                                               ; preds = %50, %28
  %32 = load i32, i32* %4, align 4
  %33 = icmp sge i32 %32, 0
  br i1 %33, label %34, label %53

34:                                               ; preds = %31
  store i32 0, i32* %6, align 4
  %35 = load i32, i32* %4, align 4
  %36 = sext i32 %35 to i64
  %37 = getelementptr inbounds [25 x i32], [25 x i32]* @main.hight, i64 0, i64 %36
  %38 = load i32, i32* %37, align 4
  %39 = load i32, i32* %3, align 4
  %40 = sext i32 %39 to i64
  %41 = getelementptr inbounds [25 x i32], [25 x i32]* @main.hight, i64 0, i64 %40
  %42 = load i32, i32* %41, align 4
  %43 = icmp sge i32 %38, %42
  br i1 %43, label %44, label %49

44:                                               ; preds = %34
  %45 = load i32, i32* %4, align 4
  %46 = sext i32 %45 to i64
  %47 = getelementptr inbounds [25 x i32], [25 x i32]* @main.num, i64 0, i64 %46
  %48 = load i32, i32* %47, align 4
  store i32 %48, i32* %6, align 4
  br label %53

49:                                               ; preds = %34
  br label %50

50:                                               ; preds = %49
  %51 = load i32, i32* %4, align 4
  %52 = add nsw i32 %51, -1
  store i32 %52, i32* %4, align 4
  br label %31

53:                                               ; preds = %44, %31
  %54 = load i32, i32* %4, align 4
  %55 = icmp eq i32 %54, -1
  br i1 %55, label %56, label %60

56:                                               ; preds = %53
  %57 = load i32, i32* %3, align 4
  %58 = sext i32 %57 to i64
  %59 = getelementptr inbounds [25 x i32], [25 x i32]* @main.num, i64 0, i64 %58
  store i32 1, i32* %59, align 4
  br label %60

60:                                               ; preds = %56, %53
  %61 = load i32, i32* %4, align 4
  %62 = sub nsw i32 %61, 1
  store i32 %62, i32* %7, align 4
  br label %63

63:                                               ; preds = %90, %60
  %64 = load i32, i32* %7, align 4
  %65 = icmp sge i32 %64, 0
  br i1 %65, label %66, label %93

66:                                               ; preds = %63
  %67 = load i32, i32* %7, align 4
  %68 = sext i32 %67 to i64
  %69 = getelementptr inbounds [25 x i32], [25 x i32]* @main.hight, i64 0, i64 %68
  %70 = load i32, i32* %69, align 4
  %71 = load i32, i32* %3, align 4
  %72 = sext i32 %71 to i64
  %73 = getelementptr inbounds [25 x i32], [25 x i32]* @main.hight, i64 0, i64 %72
  %74 = load i32, i32* %73, align 4
  %75 = icmp sge i32 %70, %74
  br i1 %75, label %76, label %89

76:                                               ; preds = %66
  %77 = load i32, i32* %7, align 4
  %78 = sext i32 %77 to i64
  %79 = getelementptr inbounds [25 x i32], [25 x i32]* @main.num, i64 0, i64 %78
  %80 = load i32, i32* %79, align 4
  %81 = load i32, i32* %6, align 4
  %82 = icmp sgt i32 %80, %81
  br i1 %82, label %83, label %88

83:                                               ; preds = %76
  %84 = load i32, i32* %7, align 4
  %85 = sext i32 %84 to i64
  %86 = getelementptr inbounds [25 x i32], [25 x i32]* @main.num, i64 0, i64 %85
  %87 = load i32, i32* %86, align 4
  store i32 %87, i32* %6, align 4
  br label %88

88:                                               ; preds = %83, %76
  br label %89

89:                                               ; preds = %88, %66
  br label %90

90:                                               ; preds = %89
  %91 = load i32, i32* %7, align 4
  %92 = add nsw i32 %91, -1
  store i32 %92, i32* %7, align 4
  br label %63

93:                                               ; preds = %63
  %94 = load i32, i32* %3, align 4
  %95 = sext i32 %94 to i64
  %96 = getelementptr inbounds [25 x i32], [25 x i32]* @main.num, i64 0, i64 %95
  %97 = load i32, i32* %96, align 4
  %98 = icmp eq i32 %97, 0
  br i1 %98, label %99, label %105

99:                                               ; preds = %93
  %100 = load i32, i32* %6, align 4
  %101 = add nsw i32 %100, 1
  %102 = load i32, i32* %3, align 4
  %103 = sext i32 %102 to i64
  %104 = getelementptr inbounds [25 x i32], [25 x i32]* @main.num, i64 0, i64 %103
  store i32 %101, i32* %104, align 4
  br label %105

105:                                              ; preds = %99, %93
  br label %106

106:                                              ; preds = %105
  %107 = load i32, i32* %3, align 4
  %108 = add nsw i32 %107, 1
  store i32 %108, i32* %3, align 4
  br label %23

109:                                              ; preds = %23
  %110 = load i32, i32* %2, align 4
  %111 = sub nsw i32 %110, 1
  %112 = sext i32 %111 to i64
  %113 = getelementptr inbounds [25 x i32], [25 x i32]* @main.num, i64 0, i64 %112
  %114 = load i32, i32* %113, align 4
  store i32 %114, i32* %5, align 4
  %115 = load i32, i32* %2, align 4
  %116 = sub nsw i32 %115, 2
  store i32 %116, i32* %3, align 4
  br label %117

117:                                              ; preds = %133, %109
  %118 = load i32, i32* %3, align 4
  %119 = icmp sge i32 %118, 0
  br i1 %119, label %120, label %136

120:                                              ; preds = %117
  %121 = load i32, i32* %3, align 4
  %122 = sext i32 %121 to i64
  %123 = getelementptr inbounds [25 x i32], [25 x i32]* @main.num, i64 0, i64 %122
  %124 = load i32, i32* %123, align 4
  %125 = load i32, i32* %5, align 4
  %126 = icmp sgt i32 %124, %125
  br i1 %126, label %127, label %132

127:                                              ; preds = %120
  %128 = load i32, i32* %3, align 4
  %129 = sext i32 %128 to i64
  %130 = getelementptr inbounds [25 x i32], [25 x i32]* @main.num, i64 0, i64 %129
  %131 = load i32, i32* %130, align 4
  store i32 %131, i32* %5, align 4
  br label %132

132:                                              ; preds = %127, %120
  br label %133

133:                                              ; preds = %132
  %134 = load i32, i32* %3, align 4
  %135 = add nsw i32 %134, -1
  store i32 %135, i32* %3, align 4
  br label %117

136:                                              ; preds = %117
  %137 = load i32, i32* %5, align 4
  %138 = call i32 (i8*, ...) @printf(i8* getelementptr inbounds ([4 x i8], [4 x i8]* @.str.1, i64 0, i64 0), i32 %137)
  ret i32 0
}

declare dso_local i32 @__isoc99_scanf(i8*, ...) #1

declare dso_local i32 @printf(i8*, ...) #1


!llvm.module.flags = !{!0}
!llvm.ident = !{!1}

!0 = !{i32 1, !"wchar_size", i32 4}
!1 = !{!"clang version 10.0.0-4ubuntu1 "}
